target datalayout = "e-m:e-p270:32:32-p271:32:32-p272:64:64-i64:64-i128:128-f80:128-n8:16:32:64-S128"
target triple = "x86_64-pc-linux-gnu"

%struct._generic_one_id_string = type { i32, ptr }

@asam_cmp_devices = internal global ptr null, align 8
@asam_cmp_devices_num = internal global i32 0, align 4
@data_asam_cmp_devices = internal global ptr null, align 8

; Function Attrs: null_pointer_is_valid sspstrong uwtable
define internal void @reset_asam_cmp_devices_cb() #0 {
  %1 = load ptr, ptr @data_asam_cmp_devices, align 8
  %2 = icmp ne ptr %1, null
  br i1 %2, label %3, label %5

3:                                                ; preds = %0
  %4 = load ptr, ptr @data_asam_cmp_devices, align 8
  call void @g_hash_table_destroy(ptr noundef %4)
  store ptr null, ptr @data_asam_cmp_devices, align 8
  br label %5

5:                                                ; preds = %3, %0
  ret void
}

; Function Attrs: null_pointer_is_valid sspstrong uwtable
define internal void @post_update_asam_cmp_devices_cb() #0 {
  %1 = alloca i32, align 4
  call void @reset_asam_cmp_devices_cb()
  %2 = call ptr @g_hash_table_new_full(ptr noundef @g_direct_hash, ptr noundef @g_direct_equal, ptr noundef null, ptr noundef null)
  store ptr %2, ptr @data_asam_cmp_devices, align 8
  call void @llvm.lifetime.start.p0(i64 4, ptr %1) #8
  store i32 0, ptr %1, align 4
  br label %3

3:                                                ; preds = %25, %0
  %4 = load i32, ptr %1, align 4
  %5 = load i32, ptr @asam_cmp_devices_num, align 4
  %6 = icmp ult i32 %4, %5
  br i1 %6, label %8, label %7

7:                                                ; preds = %3
  call void @llvm.lifetime.end.p0(i64 4, ptr %1) #8
  br label %28

8:                                                ; preds = %3
  %9 = load ptr, ptr @data_asam_cmp_devices, align 8
  %10 = load ptr, ptr @asam_cmp_devices, align 8
  %11 = load i32, ptr %1, align 4
  %12 = zext i32 %11 to i64
  %13 = getelementptr %struct._generic_one_id_string, ptr %10, i64 %12
  %14 = getelementptr inbounds nuw %struct._generic_one_id_string, ptr %13, i32 0, i32 0
  %15 = load i32, ptr %14, align 8
  %16 = zext i32 %15 to i64
  %17 = inttoptr i64 %16 to ptr
  %18 = load ptr, ptr @asam_cmp_devices, align 8
  %19 = load i32, ptr %1, align 4
  %20 = zext i32 %19 to i64
  %21 = getelementptr %struct._generic_one_id_string, ptr %18, i64 %20
  %22 = getelementptr inbounds nuw %struct._generic_one_id_string, ptr %21, i32 0, i32 1
  %23 = load ptr, ptr %22, align 8
  %24 = call i32 @g_hash_table_insert(ptr noundef %9, ptr noundef %17, ptr noundef %23)
  br label %25

25:                                               ; preds = %8
  %26 = load i32, ptr %1, align 4
  %27 = add i32 %26, 1
  store i32 %27, ptr %1, align 4
  br label %3, !llvm.loop !6

28:                                               ; preds = %7
  ret void
}